; Function Attrs: mustprogress uwtable
define internal noundef nonnull ptr @_ZN7testing8internal15TestFactoryImplIN4absl18debugging_internal12_GLOBAL__N_160DecodeRustPunycodeTest_AcceptsTwoByteCharAmidBasicChars_TestEE10CreateTestEv(ptr nonnull readnone align 8 captures(none) %0) unnamed_addr #4 align 2 personality ptr @__gxx_personality_v0 {
  %2 = tail call noalias noundef nonnull dereferenceable(1104) ptr @_Znwm(i64 noundef 1104) #27
  invoke void @_ZN7testing4TestC2Ev(ptr noundef nonnull align 8 dereferenceable(1104) %2)
          to label %3 unwind label %10

3:                                                ; preds = %1
  %4 = getelementptr inbounds nuw i8, ptr %2, i64 16
  %5 = getelementptr inbounds nuw i8, ptr %2, i64 32
  store ptr %5, ptr %4, align 8, !tbaa !4
  %6 = getelementptr inbounds nuw i8, ptr %2, i64 24
  store i64 0, ptr %6, align 8, !tbaa !10
  store i8 0, ptr %5, align 1, !tbaa !13
  %7 = getelementptr inbounds nuw i8, ptr %2, i64 48
  %8 = getelementptr inbounds nuw i8, ptr %2, i64 64
  store ptr %8, ptr %7, align 8, !tbaa !4
  %9 = getelementptr inbounds nuw i8, ptr %2, i64 56
  store i64 0, ptr %9, align 8, !tbaa !10
  store i8 0, ptr %8, align 1, !tbaa !13
  store ptr getelementptr inbounds nuw inrange(-16, 48) (i8, ptr @_ZTVN4absl18debugging_internal12_GLOBAL__N_160DecodeRustPunycodeTest_AcceptsTwoByteCharAmidBasicChars_TestE, i64 16), ptr %2, align 8, !tbaa !14
  ret ptr %2

10:                                               ; preds = %1
  %11 = landingpad { ptr, i32 }
          cleanup
  tail call void @_ZdlPvm(ptr noundef nonnull %2, i64 noundef 1104) #26
  resume { ptr, i32 } %11
}